target datalayout = "e-m:e-p270:32:32-p271:32:32-p272:64:64-i64:64-i128:128-f80:128-n8:16:32:64-S128"
target triple = "x86_64-pc-linux-gnu"

%struct.manifest_files_hash = type { i64, i32, i32, i32, ptr, ptr }
%struct.manifest_file = type { i32, ptr, i64, i32, i32, ptr }

; Function Attrs: inlinehint nounwind uwtable
define internal i32 @manifest_files_entry_hash(ptr noundef %0, ptr noundef %1) #3 {
  %3 = alloca ptr, align 8
  %4 = alloca ptr, align 8
  store ptr %0, ptr %3, align 8
  store ptr %1, ptr %4, align 8
  %5 = load ptr, ptr %4, align 8
  %6 = getelementptr inbounds nuw %struct.manifest_file, ptr %5, i32 0, i32 1
  %7 = load ptr, ptr %6, align 8
  %8 = call i32 @hash_string(ptr noundef %7)
  ret i32 %8
}

; Function Attrs: inlinehint nounwind uwtable
define internal i32 @manifest_files_next(ptr noundef %0, i32 noundef %1, i32 noundef %2) #3 {
  %4 = alloca ptr, align 8
  %5 = alloca i32, align 4
  %6 = alloca i32, align 4
  store ptr %0, ptr %4, align 8
  store i32 %1, ptr %5, align 4
  store i32 %2, ptr %6, align 4
  %7 = load i32, ptr %5, align 4
  %8 = add i32 %7, 1
  %9 = load ptr, ptr %4, align 8
  %10 = getelementptr inbounds nuw %struct.manifest_files_hash, ptr %9, i32 0, i32 2
  %11 = load i32, ptr %10, align 4
  %12 = and i32 %8, %11
  store i32 %12, ptr %5, align 4
  %13 = load i32, ptr %5, align 4
  ret i32 %13
}

; Function Attrs: inlinehint nounwind uwtable
define internal i32 @manifest_files_initial_bucket(ptr noundef %0, i32 noundef %1) #3 {
  %3 = alloca ptr, align 8
  %4 = alloca i32, align 4
  store ptr %0, ptr %3, align 8
  store i32 %1, ptr %4, align 4
  %5 = load i32, ptr %4, align 4
  %6 = load ptr, ptr %3, align 8
  %7 = getelementptr inbounds nuw %struct.manifest_files_hash, ptr %6, i32 0, i32 2
  %8 = load i32, ptr %7, align 4
  %9 = and i32 %5, %8
  ret i32 %9
}

; Function Attrs: nounwind uwtable
define dso_local zeroext i1 @manifest_files_delete(ptr noundef %0, ptr noundef %1) #0 {
  %3 = alloca i1, align 1
  %4 = alloca ptr, align 8
  %5 = alloca ptr, align 8
  %6 = alloca i32, align 4
  %7 = alloca i32, align 4
  %8 = alloca i32, align 4
  %9 = alloca ptr, align 8
  %10 = alloca i32, align 4
  %11 = alloca ptr, align 8
  %12 = alloca ptr, align 8
  %13 = alloca i32, align 4
  %14 = alloca i32, align 4
  store ptr %0, ptr %4, align 8
  store ptr %1, ptr %5, align 8
  call void @llvm.lifetime.start.p0(i64 4, ptr %6) #14
  %15 = load ptr, ptr %5, align 8
  %16 = call i32 @hash_string(ptr noundef %15)
  store i32 %16, ptr %6, align 4
  call void @llvm.lifetime.start.p0(i64 4, ptr %7) #14
  %17 = load ptr, ptr %4, align 8
  %18 = load i32, ptr %6, align 4
  %19 = call i32 @manifest_files_initial_bucket(ptr noundef %17, i32 noundef %18)
  store i32 %19, ptr %7, align 4
  call void @llvm.lifetime.start.p0(i64 4, ptr %8) #14
  %20 = load i32, ptr %7, align 4
  store i32 %20, ptr %8, align 4
  br label %21

21:                                               ; preds = %99, %2
  br label %22

22:                                               ; preds = %21
  call void @llvm.lifetime.start.p0(i64 8, ptr %9) #14
  %23 = load ptr, ptr %4, align 8
  %24 = getelementptr inbounds nuw %struct.manifest_files_hash, ptr %23, i32 0, i32 4
  %25 = load ptr, ptr %24, align 8
  %26 = load i32, ptr %8, align 4
  %27 = zext i32 %26 to i64
  %28 = getelementptr inbounds nuw %struct.manifest_file, ptr %25, i64 %27
  store ptr %28, ptr %9, align 8
  %29 = load ptr, ptr %9, align 8
  %30 = getelementptr inbounds nuw %struct.manifest_file, ptr %29, i32 0, i32 0
  %31 = load i32, ptr %30, align 8
  %32 = icmp eq i32 %31, 0
  br i1 %32, label %33, label %34

33:                                               ; preds = %22
  store i1 false, ptr %3, align 1
  store i32 1, ptr %10, align 4
  br label %97

34:                                               ; preds = %22
  %35 = load ptr, ptr %9, align 8
  %36 = getelementptr inbounds nuw %struct.manifest_file, ptr %35, i32 0, i32 0
  %37 = load i32, ptr %36, align 8
  %38 = icmp eq i32 %37, 1
  br i1 %38, label %39, label %92

39:                                               ; preds = %34
  %40 = load ptr, ptr %9, align 8
  %41 = getelementptr inbounds nuw %struct.manifest_file, ptr %40, i32 0, i32 1
  %42 = load ptr, ptr %41, align 8
  %43 = load ptr, ptr %5, align 8
  %44 = call i32 @strcmp(ptr noundef %42, ptr noundef %43) #16
  %45 = icmp eq i32 %44, 0
  br i1 %45, label %46, label %92

46:                                               ; preds = %39
  call void @llvm.lifetime.start.p0(i64 8, ptr %11) #14
  %47 = load ptr, ptr %9, align 8
  store ptr %47, ptr %11, align 8
  %48 = load ptr, ptr %4, align 8
  %49 = getelementptr inbounds nuw %struct.manifest_files_hash, ptr %48, i32 0, i32 1
  %50 = load i32, ptr %49, align 8
  %51 = add i32 %50, -1
  store i32 %51, ptr %49, align 8
  br label %52

52:                                               ; preds = %90, %46
  br label %53

53:                                               ; preds = %52
  call void @llvm.lifetime.start.p0(i64 8, ptr %12) #14
  call void @llvm.lifetime.start.p0(i64 4, ptr %13) #14
  call void @llvm.lifetime.start.p0(i64 4, ptr %14) #14
  %54 = load ptr, ptr %4, align 8
  %55 = load i32, ptr %8, align 4
  %56 = load i32, ptr %7, align 4
  %57 = call i32 @manifest_files_next(ptr noundef %54, i32 noundef %55, i32 noundef %56)
  store i32 %57, ptr %8, align 4
  %58 = load ptr, ptr %4, align 8
  %59 = getelementptr inbounds nuw %struct.manifest_files_hash, ptr %58, i32 0, i32 4
  %60 = load ptr, ptr %59, align 8
  %61 = load i32, ptr %8, align 4
  %62 = zext i32 %61 to i64
  %63 = getelementptr inbounds nuw %struct.manifest_file, ptr %60, i64 %62
  store ptr %63, ptr %12, align 8
  %64 = load ptr, ptr %12, align 8
  %65 = getelementptr inbounds nuw %struct.manifest_file, ptr %64, i32 0, i32 0
  %66 = load i32, ptr %65, align 8
  %67 = icmp ne i32 %66, 1
  br i1 %67, label %68, label %71

68:                                               ; preds = %53
  %69 = load ptr, ptr %11, align 8
  %70 = getelementptr inbounds nuw %struct.manifest_file, ptr %69, i32 0, i32 0
  store i32 0, ptr %70, align 8
  store i32 5, ptr %10, align 4
  br label %88

71:                                               ; preds = %53
  %72 = load ptr, ptr %4, align 8
  %73 = load ptr, ptr %12, align 8
  %74 = call i32 @manifest_files_entry_hash(ptr noundef %72, ptr noundef %73)
  store i32 %74, ptr %13, align 4
  %75 = load ptr, ptr %4, align 8
  %76 = load i32, ptr %13, align 4
  %77 = call i32 @manifest_files_initial_bucket(ptr noundef %75, i32 noundef %76)
  store i32 %77, ptr %14, align 4
  %78 = load i32, ptr %14, align 4
  %79 = load i32, ptr %8, align 4
  %80 = icmp eq i32 %78, %79
  br i1 %80, label %81, label %84

81:                                               ; preds = %71
  %82 = load ptr, ptr %11, align 8
  %83 = getelementptr inbounds nuw %struct.manifest_file, ptr %82, i32 0, i32 0
  store i32 0, ptr %83, align 8
  store i32 5, ptr %10, align 4
  br label %88

84:                                               ; preds = %71
  %85 = load ptr, ptr %11, align 8
  %86 = load ptr, ptr %12, align 8
  call void @llvm.memcpy.p0.p0.i64(ptr align 8 %85, ptr align 8 %86, i64 40, i1 false)
  %87 = load ptr, ptr %12, align 8
  store ptr %87, ptr %11, align 8
  store i32 0, ptr %10, align 4
  br label %88

88:                                               ; preds = %84, %81, %68
  call void @llvm.lifetime.end.p0(i64 4, ptr %14) #14
  call void @llvm.lifetime.end.p0(i64 4, ptr %13) #14
  call void @llvm.lifetime.end.p0(i64 8, ptr %12) #14
  %89 = load i32, ptr %10, align 4
  switch i32 %89, label %102 [
    i32 0, label %90
    i32 5, label %91
  ]

90:                                               ; preds = %88
  br label %52

91:                                               ; preds = %88
  store i1 true, ptr %3, align 1
  store i32 1, ptr %10, align 4
  call void @llvm.lifetime.end.p0(i64 8, ptr %11) #14
  br label %97

92:                                               ; preds = %39, %34
  %93 = load ptr, ptr %4, align 8
  %94 = load i32, ptr %8, align 4
  %95 = load i32, ptr %7, align 4
  %96 = call i32 @manifest_files_next(ptr noundef %93, i32 noundef %94, i32 noundef %95)
  store i32 %96, ptr %8, align 4
  store i32 0, ptr %10, align 4
  br label %97

97:                                               ; preds = %92, %91, %33
  call void @llvm.lifetime.end.p0(i64 8, ptr %9) #14
  %98 = load i32, ptr %10, align 4
  switch i32 %98, label %100 [
    i32 0, label %99
  ]

99:                                               ; preds = %97
  br label %21

100:                                              ; preds = %97
  call void @llvm.lifetime.end.p0(i64 4, ptr %8) #14
  call void @llvm.lifetime.end.p0(i64 4, ptr %7) #14
  call void @llvm.lifetime.end.p0(i64 4, ptr %6) #14
  %101 = load i1, ptr %3, align 1
  ret i1 %101

102:                                              ; preds = %88
  unreachable
}