; Function Attrs: nofree nounwind memory(readwrite, inaccessiblemem: none) uwtable
define dso_local noundef zeroext i1 @manifest_files_delete(ptr noundef captures(none) %0, ptr noundef %1) local_unnamed_addr #9 {
  %3 = tail call fastcc i32 @hash_string(ptr noundef %1)
  %4 = getelementptr i8, ptr %0, i64 12
  %.val42 = load i32, ptr %4, align 4
  %5 = getelementptr inbounds nuw i8, ptr %0, i64 24
  %6 = load ptr, ptr %5, align 8
  br label %7

7:                                                ; preds = %38, %2
  %.pn = phi i32 [ %3, %2 ], [ %39, %38 ]
  %.034 = and i32 %.val42, %.pn
  %8 = zext i32 %.034 to i64
  %9 = getelementptr inbounds nuw %struct.manifest_file, ptr %6, i64 %8
  %10 = load i32, ptr %9, align 8
  switch i32 %10, label %38 [
    i32 0, label %.thread
    i32 1, label %11
  ]

11:                                               ; preds = %7
  %12 = getelementptr inbounds nuw i8, ptr %9, i64 8
  %13 = load ptr, ptr %12, align 8
  %14 = tail call i32 @strcmp(ptr noundef nonnull dereferenceable(1) %13, ptr noundef nonnull dereferenceable(1) %1) #24
  %15 = icmp eq i32 %14, 0
  br i1 %15, label %16, label %38

16:                                               ; preds = %11
  %17 = getelementptr inbounds nuw i8, ptr %0, i64 8
  %18 = load i32, ptr %17, align 8
  %19 = add i32 %18, -1
  store i32 %19, ptr %17, align 8
  %20 = add i32 %.034, 1
  %21 = and i32 %20, %.val42
  %22 = zext i32 %21 to i64
  %23 = getelementptr inbounds nuw %struct.manifest_file, ptr %6, i64 %22
  %24 = load i32, ptr %23, align 8
  %.not60 = icmp eq i32 %24, 1
  br i1 %.not60, label %.lr.ph, label %.thread.sink.split

.lr.ph:                                           ; preds = %16, %31
  %25 = phi ptr [ %36, %31 ], [ %23, %16 ]
  %26 = phi i32 [ %33, %31 ], [ %21, %16 ]
  %.val4462 = phi i32 [ %.val44, %31 ], [ %.val42, %16 ]
  %.03861 = phi ptr [ %25, %31 ], [ %9, %16 ]
  %27 = getelementptr i8, ptr %25, i64 8
  %.val = load ptr, ptr %27, align 8
  %28 = tail call fastcc i32 @hash_string(ptr noundef readonly %.val)
  %29 = and i32 %28, %.val4462
  %30 = icmp eq i32 %29, %26
  br i1 %30, label %.thread.sink.split, label %31

31:                                               ; preds = %.lr.ph
  tail call void @llvm.memcpy.p0.p0.i64(ptr noundef nonnull align 8 dereferenceable(40) %.03861, ptr noundef nonnull align 8 dereferenceable(40) %25, i64 40, i1 false)
  %.val44 = load i32, ptr %4, align 4
  %32 = add i32 %26, 1
  %33 = and i32 %32, %.val44
  %34 = load ptr, ptr %5, align 8
  %35 = zext i32 %33 to i64
  %36 = getelementptr inbounds nuw %struct.manifest_file, ptr %34, i64 %35
  %37 = load i32, ptr %36, align 8
  %.not = icmp eq i32 %37, 1
  br i1 %.not, label %.lr.ph, label %.thread.sink.split

38:                                               ; preds = %11, %7
  %39 = add i32 %.034, 1
  br label %7

.thread.sink.split:                               ; preds = %.lr.ph, %31, %16
  %.03861.lcssa.sink = phi ptr [ %9, %16 ], [ %25, %31 ], [ %.03861, %.lr.ph ]
  store i32 0, ptr %.03861.lcssa.sink, align 8
  br label %.thread

.thread:                                          ; preds = %7, %.thread.sink.split
  %.1.ph = phi i1 [ true, %.thread.sink.split ], [ false, %7 ]
  ret i1 %.1.ph
}